; Function Attrs: mustprogress uwtable
define dso_local void @_ZNK4i18n12phonenumbers11UnicodeText10UnsafeFindERKS1_NS1_14const_iteratorE(ptr dead_on_unwind noalias writable writeonly sret(%"class.i18n::phonenumbers::UnicodeText::const_iterator") align 8 captures(none) initializes((0, 8)) %0, ptr noundef nonnull readonly align 8 captures(none) dereferenceable(24) %1, ptr noundef nonnull readonly align 8 captures(none) dereferenceable(24) %2, ptr noundef readonly captures(none) %3) local_unnamed_addr #1 align 2 {
  %5 = alloca %"class.i18n::phonenumbers::StringPiece", align 8
  %6 = alloca %"class.i18n::phonenumbers::StringPiece", align 8
  call void @llvm.lifetime.start.p0(i64 16, ptr nonnull %5) #27
  %7 = load ptr, ptr %1, align 8, !tbaa !44
  %8 = getelementptr inbounds nuw i8, ptr %1, i64 8
  %9 = load i32, ptr %8, align 8, !tbaa !46
  %10 = sext i32 %9 to i64
  store ptr %7, ptr %5, align 8, !tbaa !70
  %11 = getelementptr inbounds nuw i8, ptr %5, i64 8
  store i64 %10, ptr %11, align 8, !tbaa !72
  call void @llvm.lifetime.start.p0(i64 16, ptr nonnull %6) #27
  %12 = load ptr, ptr %2, align 8, !tbaa !44
  %13 = getelementptr inbounds nuw i8, ptr %2, i64 8
  %14 = load i32, ptr %13, align 8, !tbaa !46
  %15 = sext i32 %14 to i64
  store ptr %12, ptr %6, align 8, !tbaa !70
  %16 = getelementptr inbounds nuw i8, ptr %6, i64 8
  store i64 %15, ptr %16, align 8, !tbaa !72
  %17 = load ptr, ptr %3, align 8, !tbaa !4
  %18 = ptrtoint ptr %17 to i64
  %19 = ptrtoint ptr %7 to i64
  %20 = sub i64 %18, %19
  %21 = call noundef i64 @_ZNK4i18n12phonenumbers11StringPiece4findERKS1_m(ptr noundef nonnull align 8 dereferenceable(16) %5, ptr noundef nonnull align 8 dereferenceable(16) %6, i64 noundef %20)
  %22 = load i64, ptr @_ZN4i18n12phonenumbers11StringPiece4nposE, align 8, !tbaa !47
  %23 = icmp eq i64 %21, %22
  %24 = load ptr, ptr %1, align 8, !tbaa !44
  %25 = load i32, ptr %8, align 8
  %26 = sext i32 %25 to i64
  %.sink = select i1 %23, i64 %26, i64 %21
  %27 = getelementptr inbounds i8, ptr %24, i64 %.sink
  store ptr %27, ptr %0, align 8, !tbaa !4
  call void @llvm.lifetime.end.p0(i64 16, ptr nonnull %6) #27
  call void @llvm.lifetime.end.p0(i64 16, ptr nonnull %5) #27
  ret void
}